target datalayout = "e-m:e-p270:32:32-p271:32:32-p272:64:64-i64:64-i128:128-f80:128-n8:16:32:64-S128"
target triple = "x86_64-pc-linux-gnu"

%struct.URLContext = type { ptr, ptr, ptr, ptr, i32, i32, i32, i32, %struct.AVIOInterruptCB, i64, ptr, ptr, i32 }
%struct.AVIOInterruptCB = type { ptr, ptr }
%struct.CacheContext = type { ptr, i32, ptr, ptr, i64, i64, i64, i64, i32, ptr, i64, i64, i32 }

@.str.14 = private unnamed_addr constant [45 x i8] c"Statistics, cache hits:%ld cache misses:%ld\0A\00", align 1
@.str.15 = private unnamed_addr constant [22 x i8] c"Could not delete %s.\0A\00", align 1

; Function Attrs: nounwind uwtable
define internal i32 @cache_close(ptr noundef %0) #0 {
  %2 = alloca ptr, align 8
  %3 = alloca ptr, align 8
  %4 = alloca i32, align 4
  store ptr %0, ptr %2, align 8, !tbaa !4
  call void @llvm.lifetime.start.p0(i64 8, ptr %3) #8
  %5 = load ptr, ptr %2, align 8, !tbaa !4
  %6 = getelementptr inbounds nuw %struct.URLContext, ptr %5, i32 0, i32 2
  %7 = load ptr, ptr %6, align 8, !tbaa !16
  store ptr %7, ptr %3, align 8, !tbaa !22
  call void @llvm.lifetime.start.p0(i64 4, ptr %4) #8
  %8 = load ptr, ptr %2, align 8, !tbaa !4
  %9 = load ptr, ptr %3, align 8, !tbaa !22
  %10 = getelementptr inbounds nuw %struct.CacheContext, ptr %9, i32 0, i32 10
  %11 = load i64, ptr %10, align 8, !tbaa !40
  %12 = load ptr, ptr %3, align 8, !tbaa !22
  %13 = getelementptr inbounds nuw %struct.CacheContext, ptr %12, i32 0, i32 11
  %14 = load i64, ptr %13, align 8, !tbaa !45
  call void (ptr, i32, ptr, ...) @av_log(ptr noundef %8, i32 noundef 32, ptr noundef @.str.14, i64 noundef %11, i64 noundef %14)
  %15 = load ptr, ptr %3, align 8, !tbaa !22
  %16 = getelementptr inbounds nuw %struct.CacheContext, ptr %15, i32 0, i32 1
  %17 = load i32, ptr %16, align 8, !tbaa !24
  %18 = call i32 @close(i32 noundef %17)
  %19 = load ptr, ptr %3, align 8, !tbaa !22
  %20 = getelementptr inbounds nuw %struct.CacheContext, ptr %19, i32 0, i32 2
  %21 = load ptr, ptr %20, align 8, !tbaa !27
  %22 = icmp ne ptr %21, null
  br i1 %22, label %23, label %38

23:                                               ; preds = %1
  %24 = load ptr, ptr %3, align 8, !tbaa !22
  %25 = getelementptr inbounds nuw %struct.CacheContext, ptr %24, i32 0, i32 2
  %26 = load ptr, ptr %25, align 8, !tbaa !27
  %27 = call i32 @unlink(ptr noundef %26) #8
  store i32 %27, ptr %4, align 4, !tbaa !11
  %28 = load i32, ptr %4, align 4, !tbaa !11
  %29 = icmp slt i32 %28, 0
  br i1 %29, label %30, label %35

30:                                               ; preds = %23
  %31 = load ptr, ptr %2, align 8, !tbaa !4
  %32 = load ptr, ptr %3, align 8, !tbaa !22
  %33 = getelementptr inbounds nuw %struct.CacheContext, ptr %32, i32 0, i32 2
  %34 = load ptr, ptr %33, align 8, !tbaa !27
  call void (ptr, i32, ptr, ...) @av_log(ptr noundef %31, i32 noundef 16, ptr noundef @.str.15, ptr noundef %34)
  br label %35

35:                                               ; preds = %30, %23
  %36 = load ptr, ptr %3, align 8, !tbaa !22
  %37 = getelementptr inbounds nuw %struct.CacheContext, ptr %36, i32 0, i32 2
  call void @av_freep(ptr noundef %37)
  br label %38

38:                                               ; preds = %35, %1
  %39 = load ptr, ptr %3, align 8, !tbaa !22
  %40 = getelementptr inbounds nuw %struct.CacheContext, ptr %39, i32 0, i32 9
  %41 = call i32 @ffurl_closep(ptr noundef %40)
  %42 = load ptr, ptr %3, align 8, !tbaa !22
  %43 = getelementptr inbounds nuw %struct.CacheContext, ptr %42, i32 0, i32 3
  %44 = load ptr, ptr %43, align 8, !tbaa !30
  call void @av_tree_enumerate(ptr noundef %44, ptr noundef null, ptr noundef null, ptr noundef @enu_free)
  %45 = load ptr, ptr %3, align 8, !tbaa !22
  %46 = getelementptr inbounds nuw %struct.CacheContext, ptr %45, i32 0, i32 3
  %47 = load ptr, ptr %46, align 8, !tbaa !30
  call void @av_tree_destroy(ptr noundef %47)
  call void @llvm.lifetime.end.p0(i64 4, ptr %4) #8
  call void @llvm.lifetime.end.p0(i64 8, ptr %3) #8
  ret i32 0
}