; Function Attrs: nounwind uwtable
define internal noundef i32 @cache_close(ptr noundef %0) #0 {
  %2 = getelementptr inbounds nuw i8, ptr %0, i64 16
  %3 = load ptr, ptr %2, align 8, !tbaa !9
  %4 = getelementptr inbounds nuw i8, ptr %3, i64 80
  %5 = load i64, ptr %4, align 8, !tbaa !30
  %6 = getelementptr inbounds nuw i8, ptr %3, i64 88
  %7 = load i64, ptr %6, align 8, !tbaa !35
  tail call void (ptr, i32, ptr, ...) @av_log(ptr noundef %0, i32 noundef 32, ptr noundef nonnull @.str.14, i64 noundef %5, i64 noundef %7) #10
  %8 = getelementptr inbounds nuw i8, ptr %3, i64 8
  %9 = load i32, ptr %8, align 8, !tbaa !16
  %10 = tail call i32 @close(i32 noundef %9) #10
  %11 = getelementptr inbounds nuw i8, ptr %3, i64 16
  %12 = load ptr, ptr %11, align 8, !tbaa !20
  %.not = icmp eq ptr %12, null
  br i1 %.not, label %19, label %13

13:                                               ; preds = %1
  %14 = tail call i32 @unlink(ptr noundef nonnull %12) #10
  %15 = icmp slt i32 %14, 0
  br i1 %15, label %16, label %18

16:                                               ; preds = %13
  %17 = load ptr, ptr %11, align 8, !tbaa !20
  tail call void (ptr, i32, ptr, ...) @av_log(ptr noundef nonnull %0, i32 noundef 16, ptr noundef nonnull @.str.15, ptr noundef %17) #10
  br label %18

18:                                               ; preds = %16, %13
  tail call void @av_freep(ptr noundef nonnull %11) #10
  br label %19

19:                                               ; preds = %18, %1
  %20 = getelementptr inbounds nuw i8, ptr %3, i64 72
  %21 = tail call i32 @ffurl_closep(ptr noundef nonnull %20) #10
  %22 = getelementptr inbounds nuw i8, ptr %3, i64 24
  %23 = load ptr, ptr %22, align 8, !tbaa !23
  tail call void @av_tree_enumerate(ptr noundef %23, ptr noundef null, ptr noundef null, ptr noundef nonnull @enu_free) #10
  %24 = load ptr, ptr %22, align 8, !tbaa !23
  tail call void @av_tree_destroy(ptr noundef %24) #10
  ret i32 0
}